target datalayout = "e-m:e-p270:32:32-p271:32:32-p272:64:64-i64:64-i128:128-f80:128-n8:16:32:64-S128"
target triple = "x86_64-pc-linux-gnu"

%class.Jipopt = type { %"class.Ipopt::TNLP.base", ptr, ptr, i32, i32, i32, i32, i32, ptr, ptr, ptr, ptr, ptr, ptr, ptr, ptr, ptr, i8, i8, %"class.Ipopt::SmartPtr", ptr, ptr, ptr, ptr, ptr, ptr, ptr, ptr, ptr, ptr, ptr }
%"class.Ipopt::TNLP.base" = type { %"class.Ipopt::ReferencedObject.base" }
%"class.Ipopt::ReferencedObject.base" = type <{ ptr, i32 }>
%"class.Ipopt::SmartPtr" = type { ptr }
%struct.JNIEnv_ = type { ptr }
%struct.JNINativeInterface_ = type { ptr, ptr, ptr, ptr, ptr, ptr, ptr, ptr, ptr, ptr, ptr, ptr, ptr, ptr, ptr, ptr, ptr, ptr, ptr, ptr, ptr, ptr, ptr, ptr, ptr, ptr, ptr, ptr, ptr, ptr, ptr, ptr, ptr, ptr, ptr, ptr, ptr, ptr, ptr, ptr, ptr, ptr, ptr, ptr, ptr, ptr, ptr, ptr, ptr, ptr, ptr, ptr, ptr, ptr, ptr, ptr, ptr, ptr, ptr, ptr, ptr, ptr, ptr, ptr, ptr, ptr, ptr, ptr, ptr, ptr, ptr, ptr, ptr, ptr, ptr, ptr, ptr, ptr, ptr, ptr, ptr, ptr, ptr, ptr, ptr, ptr, ptr, ptr, ptr, ptr, ptr, ptr, ptr, ptr, ptr, ptr, ptr, ptr, ptr, ptr, ptr, ptr, ptr, ptr, ptr, ptr, ptr, ptr, ptr, ptr, ptr, ptr, ptr, ptr, ptr, ptr, ptr, ptr, ptr, ptr, ptr, ptr, ptr, ptr, ptr, ptr, ptr, ptr, ptr, ptr, ptr, ptr, ptr, ptr, ptr, ptr, ptr, ptr, ptr, ptr, ptr, ptr, ptr, ptr, ptr, ptr, ptr, ptr, ptr, ptr, ptr, ptr, ptr, ptr, ptr, ptr, ptr, ptr, ptr, ptr, ptr, ptr, ptr, ptr, ptr, ptr, ptr, ptr, ptr, ptr, ptr, ptr, ptr, ptr, ptr, ptr, ptr, ptr, ptr, ptr, ptr, ptr, ptr, ptr, ptr, ptr, ptr, ptr, ptr, ptr, ptr, ptr, ptr, ptr, ptr, ptr, ptr, ptr, ptr, ptr, ptr, ptr, ptr, ptr, ptr, ptr, ptr, ptr, ptr, ptr, ptr, ptr, ptr, ptr, ptr, ptr, ptr, ptr, ptr, ptr, ptr, ptr, ptr, ptr, ptr, ptr, ptr, ptr, ptr, ptr, ptr, ptr, ptr, ptr }

; Function Attrs: mustprogress uwtable
define linkonce_odr void @_ZN7JNIEnv_17GetIntArrayRegionEP10_jintArrayiiPi(ptr noundef nonnull align 8 dereferenceable(8) %0, ptr noundef %1, i32 noundef %2, i32 noundef %3, ptr noundef %4) #4 comdat align 2 {
  %6 = alloca ptr, align 8
  %7 = alloca ptr, align 8
  %8 = alloca i32, align 4
  %9 = alloca i32, align 4
  %10 = alloca ptr, align 8
  store ptr %0, ptr %6, align 8, !tbaa !8
  store ptr %1, ptr %7, align 8, !tbaa !108
  store i32 %2, ptr %8, align 4, !tbaa !12
  store i32 %3, ptr %9, align 4, !tbaa !12
  store ptr %4, ptr %10, align 8, !tbaa !95
  %11 = load ptr, ptr %6, align 8
  %12 = getelementptr inbounds nuw %struct.JNIEnv_, ptr %11, i32 0, i32 0
  %13 = load ptr, ptr %12, align 8, !tbaa !84
  %14 = getelementptr inbounds nuw %struct.JNINativeInterface_, ptr %13, i32 0, i32 203
  %15 = load ptr, ptr %14, align 8, !tbaa !111
  %16 = load ptr, ptr %7, align 8, !tbaa !108
  %17 = load i32, ptr %8, align 4, !tbaa !12
  %18 = load i32, ptr %9, align 4, !tbaa !12
  %19 = load ptr, ptr %10, align 8, !tbaa !95
  call void %15(ptr noundef %11, ptr noundef %16, i32 noundef %17, i32 noundef %18, ptr noundef %19)
  ret void
}

; Function Attrs: mustprogress uwtable
define linkonce_odr void @_ZN7JNIEnv_20GetDoubleArrayRegionEP13_jdoubleArrayiiPd(ptr noundef nonnull align 8 dereferenceable(8) %0, ptr noundef %1, i32 noundef %2, i32 noundef %3, ptr noundef %4) #4 comdat align 2 {
  %6 = alloca ptr, align 8
  %7 = alloca ptr, align 8
  %8 = alloca i32, align 4
  %9 = alloca i32, align 4
  %10 = alloca ptr, align 8
  store ptr %0, ptr %6, align 8, !tbaa !8
  store ptr %1, ptr %7, align 8, !tbaa !101
  store i32 %2, ptr %8, align 4, !tbaa !12
  store i32 %3, ptr %9, align 4, !tbaa !12
  store ptr %4, ptr %10, align 8, !tbaa !99
  %11 = load ptr, ptr %6, align 8
  %12 = getelementptr inbounds nuw %struct.JNIEnv_, ptr %11, i32 0, i32 0
  %13 = load ptr, ptr %12, align 8, !tbaa !84
  %14 = getelementptr inbounds nuw %struct.JNINativeInterface_, ptr %13, i32 0, i32 206
  %15 = load ptr, ptr %14, align 8, !tbaa !106
  %16 = load ptr, ptr %7, align 8, !tbaa !101
  %17 = load i32, ptr %8, align 4, !tbaa !12
  %18 = load i32, ptr %9, align 4, !tbaa !12
  %19 = load ptr, ptr %10, align 8, !tbaa !99
  call void %15(ptr noundef %11, ptr noundef %16, i32 noundef %17, i32 noundef %18, ptr noundef %19)
  ret void
}

; Function Attrs: mustprogress uwtable
define linkonce_odr noundef ptr @_ZN7JNIEnv_11NewIntArrayEi(ptr noundef nonnull align 8 dereferenceable(8) %0, i32 noundef %1) #4 comdat align 2 {
  %3 = alloca ptr, align 8
  %4 = alloca i32, align 4
  store ptr %0, ptr %3, align 8, !tbaa !8
  store i32 %1, ptr %4, align 4, !tbaa !12
  %5 = load ptr, ptr %3, align 8
  %6 = getelementptr inbounds nuw %struct.JNIEnv_, ptr %5, i32 0, i32 0
  %7 = load ptr, ptr %6, align 8, !tbaa !84
  %8 = getelementptr inbounds nuw %struct.JNINativeInterface_, ptr %7, i32 0, i32 179
  %9 = load ptr, ptr %8, align 8, !tbaa !110
  %10 = load i32, ptr %4, align 4, !tbaa !12
  %11 = call noundef ptr %9(ptr noundef %5, i32 noundef %10)
  ret ptr %11
}

; Function Attrs: mustprogress uwtable
define linkonce_odr void @_ZN7JNIEnv_20SetDoubleArrayRegionEP13_jdoubleArrayiiPKd(ptr noundef nonnull align 8 dereferenceable(8) %0, ptr noundef %1, i32 noundef %2, i32 noundef %3, ptr noundef %4) #4 comdat align 2 {
  %6 = alloca ptr, align 8
  %7 = alloca ptr, align 8
  %8 = alloca i32, align 4
  %9 = alloca i32, align 4
  %10 = alloca ptr, align 8
  store ptr %0, ptr %6, align 8, !tbaa !8
  store ptr %1, ptr %7, align 8, !tbaa !101
  store i32 %2, ptr %8, align 4, !tbaa !12
  store i32 %3, ptr %9, align 4, !tbaa !12
  store ptr %4, ptr %10, align 8, !tbaa !99
  %11 = load ptr, ptr %6, align 8
  %12 = getelementptr inbounds nuw %struct.JNIEnv_, ptr %11, i32 0, i32 0
  %13 = load ptr, ptr %12, align 8, !tbaa !84
  %14 = getelementptr inbounds nuw %struct.JNINativeInterface_, ptr %13, i32 0, i32 214
  %15 = load ptr, ptr %14, align 8, !tbaa !107
  %16 = load ptr, ptr %7, align 8, !tbaa !101
  %17 = load i32, ptr %8, align 4, !tbaa !12
  %18 = load i32, ptr %9, align 4, !tbaa !12
  %19 = load ptr, ptr %10, align 8, !tbaa !99
  call void %15(ptr noundef %11, ptr noundef %16, i32 noundef %17, i32 noundef %18, ptr noundef %19)
  ret void
}

; Function Attrs: mustprogress uwtable
define noundef zeroext i1 @_ZN6Jipopt10eval_jac_gEiPKdbiiPiS2_Pd(ptr noundef nonnull align 8 dereferenceable(232) %0, i32 noundef %1, ptr noundef %2, i1 noundef zeroext %3, i32 noundef %4, i32 noundef %5, ptr noundef %6, ptr noundef %7, ptr noundef %8) unnamed_addr #4 align 2 {
  %10 = alloca i1, align 1
  %11 = alloca ptr, align 8
  %12 = alloca i32, align 4
  %13 = alloca ptr, align 8
  %14 = alloca i8, align 1
  %15 = alloca i32, align 4
  %16 = alloca i32, align 4
  %17 = alloca ptr, align 8
  %18 = alloca ptr, align 8
  %19 = alloca ptr, align 8
  %20 = alloca ptr, align 8
  %21 = alloca ptr, align 8
  %22 = alloca i8, align 1
  %23 = alloca i32, align 4
  store ptr %0, ptr %11, align 8, !tbaa !3
  store i32 %1, ptr %12, align 4, !tbaa !12
  store ptr %2, ptr %13, align 8, !tbaa !99
  %24 = zext i1 %3 to i8
  store i8 %24, ptr %14, align 1, !tbaa !60
  store i32 %4, ptr %15, align 4, !tbaa !12
  store i32 %5, ptr %16, align 4, !tbaa !12
  store ptr %6, ptr %17, align 8, !tbaa !95
  store ptr %7, ptr %18, align 8, !tbaa !95
  store ptr %8, ptr %19, align 8, !tbaa !99
  %25 = load ptr, ptr %11, align 8
  %26 = load i8, ptr %14, align 1, !tbaa !60, !range !82, !noundef !83
  %27 = trunc i8 %26 to i1
  br i1 %27, label %28, label %38

28:                                               ; preds = %9
  %29 = load ptr, ptr %13, align 8, !tbaa !99
  %30 = icmp ne ptr %29, null
  br i1 %30, label %31, label %38

31:                                               ; preds = %28
  %32 = getelementptr inbounds nuw %class.Jipopt, ptr %25, i32 0, i32 1
  %33 = load ptr, ptr %32, align 8, !tbaa !16
  %34 = getelementptr inbounds nuw %class.Jipopt, ptr %25, i32 0, i32 11
  %35 = load ptr, ptr %34, align 8, !tbaa !33
  %36 = load i32, ptr %12, align 4, !tbaa !12
  %37 = load ptr, ptr %13, align 8, !tbaa !99
  call void @_ZN7JNIEnv_20SetDoubleArrayRegionEP13_jdoubleArrayiiPKd(ptr noundef nonnull align 8 dereferenceable(8) %33, ptr noundef %35, i32 noundef 0, i32 noundef %36, ptr noundef %37)
  br label %38

38:                                               ; preds = %31, %28, %9
  call void @llvm.lifetime.start.p0(i64 8, ptr %20) #3
  store ptr null, ptr %20, align 8, !tbaa !108
  call void @llvm.lifetime.start.p0(i64 8, ptr %21) #3
  store ptr null, ptr %21, align 8, !tbaa !108
  %39 = load ptr, ptr %17, align 8, !tbaa !95
  %40 = icmp ne ptr %39, null
  br i1 %40, label %41, label %53

41:                                               ; preds = %38
  %42 = load ptr, ptr %18, align 8, !tbaa !95
  %43 = icmp ne ptr %42, null
  br i1 %43, label %44, label %53

44:                                               ; preds = %41
  %45 = getelementptr inbounds nuw %class.Jipopt, ptr %25, i32 0, i32 1
  %46 = load ptr, ptr %45, align 8, !tbaa !16
  %47 = load i32, ptr %16, align 4, !tbaa !12
  %48 = call noundef ptr @_ZN7JNIEnv_11NewIntArrayEi(ptr noundef nonnull align 8 dereferenceable(8) %46, i32 noundef %47)
  store ptr %48, ptr %20, align 8, !tbaa !108
  %49 = getelementptr inbounds nuw %class.Jipopt, ptr %25, i32 0, i32 1
  %50 = load ptr, ptr %49, align 8, !tbaa !16
  %51 = load i32, ptr %16, align 4, !tbaa !12
  %52 = call noundef ptr @_ZN7JNIEnv_11NewIntArrayEi(ptr noundef nonnull align 8 dereferenceable(8) %50, i32 noundef %51)
  store ptr %52, ptr %21, align 8, !tbaa !108
  br label %53

53:                                               ; preds = %44, %41, %38
  call void @llvm.lifetime.start.p0(i64 1, ptr %22) #3
  %54 = load i8, ptr %14, align 1, !tbaa !60, !range !82, !noundef !83
  %55 = trunc i8 %54 to i1
  %56 = zext i1 %55 to i8
  store i8 %56, ptr %22, align 1, !tbaa !105
  %57 = getelementptr inbounds nuw %class.Jipopt, ptr %25, i32 0, i32 1
  %58 = load ptr, ptr %57, align 8, !tbaa !16
  %59 = getelementptr inbounds nuw %class.Jipopt, ptr %25, i32 0, i32 2
  %60 = load ptr, ptr %59, align 8, !tbaa !24
  %61 = getelementptr inbounds nuw %class.Jipopt, ptr %25, i32 0, i32 25
  %62 = load ptr, ptr %61, align 8, !tbaa !48
  %63 = load i32, ptr %12, align 4, !tbaa !12
  %64 = getelementptr inbounds nuw %class.Jipopt, ptr %25, i32 0, i32 11
  %65 = load ptr, ptr %64, align 8, !tbaa !33
  %66 = load i8, ptr %22, align 1, !tbaa !105
  %67 = zext i8 %66 to i32
  %68 = load i32, ptr %15, align 4, !tbaa !12
  %69 = load i32, ptr %16, align 4, !tbaa !12
  %70 = load ptr, ptr %20, align 8, !tbaa !108
  %71 = load ptr, ptr %21, align 8, !tbaa !108
  %72 = load ptr, ptr %19, align 8, !tbaa !99
  %73 = icmp eq ptr %72, null
  br i1 %73, label %74, label %75

74:                                               ; preds = %53
  br label %78

75:                                               ; preds = %53
  %76 = getelementptr inbounds nuw %class.Jipopt, ptr %25, i32 0, i32 15
  %77 = load ptr, ptr %76, align 8, !tbaa !37
  br label %78

78:                                               ; preds = %75, %74
  %79 = phi ptr [ null, %74 ], [ %77, %75 ]
  %80 = call noundef zeroext i8 (ptr, ptr, ptr, ...) @_ZN7JNIEnv_17CallBooleanMethodEP8_jobjectP10_jmethodIDz(ptr noundef nonnull align 8 dereferenceable(8) %58, ptr noundef %60, ptr noundef %62, i32 noundef %63, ptr noundef %65, i32 noundef %67, i32 noundef %68, i32 noundef %69, ptr noundef %70, ptr noundef %71, ptr noundef %79)
  %81 = icmp ne i8 %80, 0
  br i1 %81, label %83, label %82

82:                                               ; preds = %78
  store i1 false, ptr %10, align 1
  store i32 1, ptr %23, align 4
  br label %111

83:                                               ; preds = %78
  %84 = load ptr, ptr %19, align 8, !tbaa !99
  %85 = icmp ne ptr %84, null
  br i1 %85, label %86, label %93

86:                                               ; preds = %83
  %87 = getelementptr inbounds nuw %class.Jipopt, ptr %25, i32 0, i32 1
  %88 = load ptr, ptr %87, align 8, !tbaa !16
  %89 = getelementptr inbounds nuw %class.Jipopt, ptr %25, i32 0, i32 15
  %90 = load ptr, ptr %89, align 8, !tbaa !37
  %91 = load i32, ptr %16, align 4, !tbaa !12
  %92 = load ptr, ptr %19, align 8, !tbaa !99
  call void @_ZN7JNIEnv_20GetDoubleArrayRegionEP13_jdoubleArrayiiPd(ptr noundef nonnull align 8 dereferenceable(8) %88, ptr noundef %90, i32 noundef 0, i32 noundef %91, ptr noundef %92)
  br label %93

93:                                               ; preds = %86, %83
  %94 = load ptr, ptr %17, align 8, !tbaa !95
  %95 = icmp ne ptr %94, null
  br i1 %95, label %96, label %110

96:                                               ; preds = %93
  %97 = load ptr, ptr %18, align 8, !tbaa !95
  %98 = icmp ne ptr %97, null
  br i1 %98, label %99, label %110

99:                                               ; preds = %96
  %100 = getelementptr inbounds nuw %class.Jipopt, ptr %25, i32 0, i32 1
  %101 = load ptr, ptr %100, align 8, !tbaa !16
  %102 = load ptr, ptr %20, align 8, !tbaa !108
  %103 = load i32, ptr %16, align 4, !tbaa !12
  %104 = load ptr, ptr %17, align 8, !tbaa !95
  call void @_ZN7JNIEnv_17GetIntArrayRegionEP10_jintArrayiiPi(ptr noundef nonnull align 8 dereferenceable(8) %101, ptr noundef %102, i32 noundef 0, i32 noundef %103, ptr noundef %104)
  %105 = getelementptr inbounds nuw %class.Jipopt, ptr %25, i32 0, i32 1
  %106 = load ptr, ptr %105, align 8, !tbaa !16
  %107 = load ptr, ptr %21, align 8, !tbaa !108
  %108 = load i32, ptr %16, align 4, !tbaa !12
  %109 = load ptr, ptr %18, align 8, !tbaa !95
  call void @_ZN7JNIEnv_17GetIntArrayRegionEP10_jintArrayiiPi(ptr noundef nonnull align 8 dereferenceable(8) %106, ptr noundef %107, i32 noundef 0, i32 noundef %108, ptr noundef %109)
  br label %110

110:                                              ; preds = %99, %96, %93
  store i1 true, ptr %10, align 1
  store i32 1, ptr %23, align 4
  br label %111

111:                                              ; preds = %110, %82
  call void @llvm.lifetime.end.p0(i64 1, ptr %22) #3
  call void @llvm.lifetime.end.p0(i64 8, ptr %21) #3
  call void @llvm.lifetime.end.p0(i64 8, ptr %20) #3
  %112 = load i1, ptr %10, align 1
  ret i1 %112
}