; Function Attrs: mustprogress uwtable
define noundef zeroext i1 @_ZN6Jipopt10eval_jac_gEiPKdbiiPiS2_Pd(ptr noundef nonnull readonly align 8 captures(none) dereferenceable(232) %0, i32 noundef %1, ptr noundef %2, i1 noundef zeroext %3, i32 noundef %4, i32 noundef %5, ptr noundef %6, ptr noundef %7, ptr noundef %8) unnamed_addr #3 align 2 {
  %10 = icmp ne ptr %2, null
  %or.cond = and i1 %3, %10
  br i1 %or.cond, label %11, label %19

11:                                               ; preds = %9
  %12 = getelementptr inbounds nuw i8, ptr %0, i64 16
  %13 = load ptr, ptr %12, align 8, !tbaa !10
  %14 = getelementptr inbounds nuw i8, ptr %0, i64 80
  %15 = load ptr, ptr %14, align 8, !tbaa !94
  %16 = load ptr, ptr %13, align 8, !tbaa !48
  %17 = getelementptr inbounds nuw i8, ptr %16, i64 1712
  %18 = load ptr, ptr %17, align 8, !tbaa !98
  tail call void %18(ptr noundef nonnull align 8 dereferenceable(8) %13, ptr noundef %15, i32 noundef 0, i32 noundef %1, ptr noundef nonnull %2)
  br label %19

19:                                               ; preds = %11, %9
  %20 = icmp ne ptr %6, null
  %21 = icmp ne ptr %7, null
  %or.cond3 = and i1 %20, %21
  br i1 %or.cond3, label %22, label %34

22:                                               ; preds = %19
  %23 = getelementptr inbounds nuw i8, ptr %0, i64 16
  %24 = load ptr, ptr %23, align 8, !tbaa !10
  %25 = load ptr, ptr %24, align 8, !tbaa !48
  %26 = getelementptr inbounds nuw i8, ptr %25, i64 1432
  %27 = load ptr, ptr %26, align 8, !tbaa !102
  %28 = tail call noundef ptr %27(ptr noundef nonnull align 8 dereferenceable(8) %24, i32 noundef %5)
  %29 = load ptr, ptr %23, align 8, !tbaa !10
  %30 = load ptr, ptr %29, align 8, !tbaa !48
  %31 = getelementptr inbounds nuw i8, ptr %30, i64 1432
  %32 = load ptr, ptr %31, align 8, !tbaa !102
  %33 = tail call noundef ptr %32(ptr noundef nonnull align 8 dereferenceable(8) %29, i32 noundef %5)
  br label %34

34:                                               ; preds = %22, %19
  %.034 = phi ptr [ %28, %22 ], [ null, %19 ]
  %.033 = phi ptr [ %33, %22 ], [ null, %19 ]
  %35 = getelementptr inbounds nuw i8, ptr %0, i64 16
  %36 = load ptr, ptr %35, align 8, !tbaa !10
  %37 = getelementptr inbounds nuw i8, ptr %0, i64 24
  %38 = load ptr, ptr %37, align 8, !tbaa !20
  %39 = getelementptr inbounds nuw i8, ptr %0, i64 184
  %40 = load ptr, ptr %39, align 8, !tbaa !59
  %41 = getelementptr inbounds nuw i8, ptr %0, i64 80
  %42 = load ptr, ptr %41, align 8, !tbaa !94
  %43 = zext i1 %3 to i32
  %44 = icmp eq ptr %8, null
  %45 = getelementptr inbounds nuw i8, ptr %0, i64 112
  %46 = load ptr, ptr %45, align 8
  %47 = select i1 %44, ptr null, ptr %46
  %48 = tail call noundef zeroext i8 (ptr, ptr, ptr, ...) @_ZN7JNIEnv_17CallBooleanMethodEP8_jobjectP10_jmethodIDz(ptr noundef nonnull align 8 dereferenceable(8) %36, ptr noundef %38, ptr noundef %40, i32 noundef %1, ptr noundef %42, i32 noundef %43, i32 noundef %4, i32 noundef %5, ptr noundef %.034, ptr noundef %.033, ptr noundef %47)
  %.not = icmp ne i8 %48, 0
  br i1 %.not, label %49, label %66

49:                                               ; preds = %34
  br i1 %44, label %56, label %50

50:                                               ; preds = %49
  %51 = load ptr, ptr %35, align 8, !tbaa !10
  %52 = load ptr, ptr %45, align 8, !tbaa !103
  %53 = load ptr, ptr %51, align 8, !tbaa !48
  %54 = getelementptr inbounds nuw i8, ptr %53, i64 1648
  %55 = load ptr, ptr %54, align 8, !tbaa !92
  tail call void %55(ptr noundef nonnull align 8 dereferenceable(8) %51, ptr noundef %52, i32 noundef 0, i32 noundef %5, ptr noundef nonnull %8)
  br label %56

56:                                               ; preds = %50, %49
  br i1 %or.cond3, label %57, label %66

57:                                               ; preds = %56
  %58 = load ptr, ptr %35, align 8, !tbaa !10
  %59 = load ptr, ptr %58, align 8, !tbaa !48
  %60 = getelementptr inbounds nuw i8, ptr %59, i64 1624
  %61 = load ptr, ptr %60, align 8, !tbaa !104
  tail call void %61(ptr noundef nonnull align 8 dereferenceable(8) %58, ptr noundef %.034, i32 noundef 0, i32 noundef %5, ptr noundef nonnull %6)
  %62 = load ptr, ptr %35, align 8, !tbaa !10
  %63 = load ptr, ptr %62, align 8, !tbaa !48
  %64 = getelementptr inbounds nuw i8, ptr %63, i64 1624
  %65 = load ptr, ptr %64, align 8, !tbaa !104
  tail call void %65(ptr noundef nonnull align 8 dereferenceable(8) %62, ptr noundef %.033, i32 noundef 0, i32 noundef %5, ptr noundef nonnull %7)
  br label %66

66:                                               ; preds = %56, %57, %34
  ret i1 %.not
}